target datalayout = "e-m:e-p270:32:32-p271:32:32-p272:64:64-i64:64-i128:128-f80:128-n8:16:32:64-S128"
target triple = "x86_64-pc-linux-gnu"

@.str.1 = private unnamed_addr constant [37 x i8] c"PRTE ERROR: %s in file %s at line %d\00", align 1
@.str.2 = private unnamed_addr constant [19 x i8] c"ess_slurm_module.c\00", align 1

; Function Attrs: nounwind uwtable
define internal i32 @rte_finalize() #0 {
  %1 = alloca i32, align 4
  call void @llvm.lifetime.start.p0(i64 4, ptr %1) #5
  %2 = call i32 @prte_ess_base_prted_finalize()
  store i32 %2, ptr %1, align 4, !tbaa !3
  %3 = icmp ne i32 0, %2
  br i1 %3, label %4, label %14

4:                                                ; preds = %0
  br label %5

5:                                                ; preds = %4
  %6 = load i32, ptr %1, align 4, !tbaa !3
  %7 = icmp ne i32 -43, %6
  br i1 %7, label %8, label %11

8:                                                ; preds = %5
  %9 = load i32, ptr %1, align 4, !tbaa !3
  %10 = call ptr @prte_strerror(i32 noundef %9)
  call void (i32, ptr, ...) @pmix_output(i32 noundef 0, ptr noundef @.str.1, ptr noundef %10, ptr noundef @.str.2, i32 noundef 97)
  br label %11

11:                                               ; preds = %8, %5
  br label %12

12:                                               ; preds = %11
  br label %13

13:                                               ; preds = %12
  br label %14

14:                                               ; preds = %13, %0
  %15 = load i32, ptr %1, align 4, !tbaa !3
  call void @llvm.lifetime.end.p0(i64 4, ptr %1) #5
  ret i32 %15
}